; Function Attrs: nounwind uwtable
define dso_local void @zslFreeLexRange(ptr noundef readonly captures(none) %0) local_unnamed_addr #0 {
  %2 = load ptr, ptr %0, align 8, !tbaa !60
  %3 = load ptr, ptr getelementptr inbounds nuw (i8, ptr @shared, i64 81904), align 8, !tbaa !61
  %.not = icmp eq ptr %2, %3
  %4 = load ptr, ptr getelementptr inbounds nuw (i8, ptr @shared, i64 81912), align 8
  %.not7 = icmp eq ptr %2, %4
  %or.cond = select i1 %.not, i1 true, i1 %.not7
  br i1 %or.cond, label %6, label %5

5:                                                ; preds = %1
  tail call void @sdsfree(ptr noundef %2) #18
  %.pre = load ptr, ptr getelementptr inbounds nuw (i8, ptr @shared, i64 81904), align 8, !tbaa !61
  %.pre11 = load ptr, ptr getelementptr inbounds nuw (i8, ptr @shared, i64 81912), align 8
  br label %6

6:                                                ; preds = %5, %1
  %7 = phi ptr [ %.pre11, %5 ], [ %4, %1 ]
  %8 = phi ptr [ %.pre, %5 ], [ %3, %1 ]
  %9 = getelementptr inbounds nuw i8, ptr %0, i64 8
  %10 = load ptr, ptr %9, align 8, !tbaa !68
  %.not8 = icmp eq ptr %10, %8
  %.not9 = icmp eq ptr %10, %7
  %or.cond10 = select i1 %.not8, i1 true, i1 %.not9
  br i1 %or.cond10, label %12, label %11

11:                                               ; preds = %6
  tail call void @sdsfree(ptr noundef %10) #18
  br label %12

12:                                               ; preds = %11, %6
  ret void
}